GAS LISTING  			page 1


   1              	 .file "ch_packets_reader.c"
   2              	 .text
   3              	.Ltext0:
   4              	 .section .rodata.str1.1,"aMS",@progbits,1
   5              	.LC0:
   6 0000 43617567 	 .string "Caught SIGINT, shutting down."
   6      68742053 
   6      4947494E 
   6      542C2073 
   6      68757474 
   7              	 .section .rodata.str1.8,"aMS",@progbits,1
   8              	 .align 8
   9              	.LC1:
  10 0000 43617567 	 .string "Caught SIGTERM, shutting down."
  10      68742053 
  10      49475445 
  10      524D2C20 
  10      73687574 
  11              	 .section .rodata.str1.1
  12              	.LC2:
  13 001e 43617567 	 .string "Caught unexpected signal %d\n"
  13      68742075 
  13      6E657870 
  13      65637465 
  13      64207369 
  14              	 .text
  15              	 .p2align 4,,15
  16              	 .type handle_signals,@function
  17              	handle_signals:
  18              	.LFB96:
  19              	 .file 1 "ch_packets_reader.c"
   1:ch_packets_reader.c **** /*
   2:ch_packets_reader.c ****  *
   3:ch_packets_reader.c ****  *      Filename: ch_packets_reader.c
   4:ch_packets_reader.c ****  *
   5:ch_packets_reader.c ****  *        Author: jacks001314@163.com
   6:ch_packets_reader.c ****  *   Description: ---
   7:ch_packets_reader.c ****  *        Create: 2017-06-01 11:23:41
   8:ch_packets_reader.c ****  * Last Modified: 2017-06-01 12:13:22
   9:ch_packets_reader.c ****  */
  10:ch_packets_reader.c **** 
  11:ch_packets_reader.c **** 
  12:ch_packets_reader.c **** #include <stdio.h>
  13:ch_packets_reader.c **** #include <stdlib.h>
  14:ch_packets_reader.c **** #include <apr_pools.h>
  15:ch_packets_reader.c **** #include <unistd.h>
  16:ch_packets_reader.c **** #include <apr_signal.h>
  17:ch_packets_reader.c **** 
  18:ch_packets_reader.c **** #include "ch_log.h"
  19:ch_packets_reader.c **** #include "ch_mmap_packets_format.h"
  20:ch_packets_reader.c **** 
  21:ch_packets_reader.c **** static int is_exit = 0;
  22:ch_packets_reader.c **** 
  23:ch_packets_reader.c **** /**
  24:ch_packets_reader.c ****  * Handle signals.
  25:ch_packets_reader.c ****  */
  26:ch_packets_reader.c **** static void handle_signals(int signum)
GAS LISTING  			page 2


  27:ch_packets_reader.c **** {
  20              	 .loc 1 27 0
  21              	 .cfi_startproc
  22              	.LVL0:
  23 0000 4883EC08 	 subq $8,%rsp
  24              	 .cfi_def_cfa_offset 16
  28:ch_packets_reader.c ****     switch (signum) {
  25              	 .loc 1 28 0
  26 0004 83FF02   	 cmpl $2,%edi
  27 0007 7438     	 je .L3
  28 0009 83FF0F   	 cmpl $15,%edi
  29 000c 7511     	 jne .L8
  29:ch_packets_reader.c ****         case SIGINT:
  30:ch_packets_reader.c ****             printf("Caught SIGINT, shutting down.\n");
  31:ch_packets_reader.c ****             exit(0);
  32:ch_packets_reader.c ****         case SIGTERM:
  33:ch_packets_reader.c ****             printf("Caught SIGTERM, shutting down.\n");
  30              	 .loc 1 33 0
  31 000e BF000000 	 movl $.LC1,%edi
  31      00
  32              	.LVL1:
  33 0013 E8000000 	 call puts
  33      00
  34              	.LVL2:
  34:ch_packets_reader.c ****             exit(0);
  35              	 .loc 1 34 0
  36 0018 31FF     	 xorl %edi,%edi
  37 001a E8000000 	 call exit
  37      00
  38              	.LVL3:
  39              	.L8:
  35:ch_packets_reader.c ****         default:
  36:ch_packets_reader.c ****             break;
  37:ch_packets_reader.c ****     }
  38:ch_packets_reader.c **** 
  39:ch_packets_reader.c **** 	is_exit = 1;
  40:ch_packets_reader.c **** 
  41:ch_packets_reader.c ****     printf("Caught unexpected signal %d\n", signum);
  40              	 .loc 1 41 0
  41 001f 89FE     	 movl %edi,%esi
  42 0021 31C0     	 xorl %eax,%eax
  43 0023 BF000000 	 movl $.LC2,%edi
  43      00
  44              	.LVL4:
  39:ch_packets_reader.c **** 
  45              	 .loc 1 39 0
  46 0028 C7050000 	 movl $1,is_exit(%rip)
  46      00000100 
  46      0000
  47              	 .loc 1 41 0
  48 0032 E8000000 	 call printf
  48      00
  49              	.LVL5:
  42:ch_packets_reader.c ****     exit(1);
  50              	 .loc 1 42 0
  51 0037 BF010000 	 movl $1,%edi
  51      00
GAS LISTING  			page 3


  52 003c E8000000 	 call exit
  52      00
  53              	.LVL6:
  54              	.L3:
  30:ch_packets_reader.c ****             exit(0);
  55              	 .loc 1 30 0
  56 0041 BF000000 	 movl $.LC0,%edi
  56      00
  57              	.LVL7:
  58 0046 E8000000 	 call puts
  58      00
  59              	.LVL8:
  31:ch_packets_reader.c ****         case SIGTERM:
  60              	 .loc 1 31 0
  61 004b 31FF     	 xorl %edi,%edi
  62 004d E8000000 	 call exit
  62      00
  63              	.LVL9:
  64              	 .cfi_endproc
  65              	.LFE96:
  66              	 .size handle_signals,.-handle_signals
  67              	 .section .rodata.str1.8
  68 001f 00       	 .align 8
  69              	.LC3:
  70 0020 55736167 	 .string "Usage: appName <packets interface file name>!\n"
  70      653A2061 
  70      70704E61 
  70      6D65203C 
  70      7061636B 
  71 004f 00       	 .align 8
  72              	.LC4:
  73 0050 63726561 	 .string "create global memory pool failed!\n"
  73      74652067 
  73      6C6F6261 
  73      6C206D65 
  73      6D6F7279 
  74              	 .section .rodata.str1.1
  75              	.LC5:
  76 003b 696E6974 	 .string "init errno failed!\n"
  76      20657272 
  76      6E6F2066 
  76      61696C65 
  76      64210A00 
  77              	.LC6:
  78 004f 2F746D70 	 .string "/tmp/preader.log"
  78      2F707265 
  78      61646572 
  78      2E6C6F67 
  78      00
  79              	 .section .rodata.str1.8
  80 0073 00000000 	 .align 8
  80      00
  81              	.LC7:
  82 0078 43726561 	 .string "Create packets mmap file format instance failed!\n"
  82      74652070 
  82      61636B65 
  82      7473206D 
GAS LISTING  			page 4


  82      6D617020 
  83 00aa 00000000 	 .align 8
  83      0000
  84              	.LC8:
  85 00b0 25733A20 	 .string "%s: iter is null, sleep %d seconds."
  85      69746572 
  85      20697320 
  85      6E756C6C 
  85      2C20736C 
  86              	 .section .text.startup,"ax",@progbits
  87              	 .p2align 4,,15
  88              	 .globl main
  89              	 .type main,@function
  90              	main:
  91              	.LFB98:
  43:ch_packets_reader.c **** }
  44:ch_packets_reader.c **** 
  45:ch_packets_reader.c **** static void read_packets_interface(ch_mmap_packets_format_t *pfmt){
  46:ch_packets_reader.c **** 
  47:ch_packets_reader.c **** 	ch_mmap_packets_iterator_t *iter = NULL;
  48:ch_packets_reader.c **** 	ch_mmap_packets_entry_t *pe = NULL; 
  49:ch_packets_reader.c **** 
  50:ch_packets_reader.c **** 	while(!is_exit) {
  51:ch_packets_reader.c **** 		
  52:ch_packets_reader.c **** 		iter = ch_mmap_packets_format_iterator_prefare(pfmt);
  53:ch_packets_reader.c **** 		
  54:ch_packets_reader.c **** 		if (iter == NULL) {
  55:ch_packets_reader.c **** 			ch_log(CH_LOG_INFO,"%s: iter is null, sleep %d seconds.", __func__, 1);
  56:ch_packets_reader.c **** 			
  57:ch_packets_reader.c **** 			usleep(1000000);
  58:ch_packets_reader.c **** 
  59:ch_packets_reader.c **** 			continue;
  60:ch_packets_reader.c **** 		}
  61:ch_packets_reader.c **** 
  62:ch_packets_reader.c **** 		while((pe = iter->next(iter))){
  63:ch_packets_reader.c **** 
  64:ch_packets_reader.c **** 			ch_mmap_packets_entry_dump(pe,stdout);
  65:ch_packets_reader.c **** 		}
  66:ch_packets_reader.c **** 
  67:ch_packets_reader.c ****         ch_mmap_packets_format_iterator_commit(pfmt, iter);
  68:ch_packets_reader.c **** 	}
  69:ch_packets_reader.c **** 
  70:ch_packets_reader.c **** 	/* exit */
  71:ch_packets_reader.c **** 	is_exit = 0;
  72:ch_packets_reader.c **** 
  73:ch_packets_reader.c **** 	if (pfmt && iter)
  74:ch_packets_reader.c **** 		ch_mmap_packets_format_iterator_commit(pfmt, iter);
  75:ch_packets_reader.c **** 
  76:ch_packets_reader.c **** 	return 0;
  77:ch_packets_reader.c **** 
  78:ch_packets_reader.c **** }
  79:ch_packets_reader.c **** 
  80:ch_packets_reader.c **** int main(int argc,char ** argv){
  92              	 .loc 1 80 0
  93              	 .cfi_startproc
  94              	.LVL10:
  95 0000 55       	 pushq %rbp
GAS LISTING  			page 5


  96              	 .cfi_def_cfa_offset 16
  97              	 .cfi_offset 6,-16
  98 0001 53       	 pushq %rbx
  99              	 .cfi_def_cfa_offset 24
 100              	 .cfi_offset 3,-24
 101 0002 4883EC28 	 subq $40,%rsp
 102              	 .cfi_def_cfa_offset 64
  81:ch_packets_reader.c **** 
  82:ch_packets_reader.c **** 	const char *fname;
  83:ch_packets_reader.c **** 	apr_pool_t *mp;
  84:ch_packets_reader.c **** 	int rc;
  85:ch_packets_reader.c **** 	ch_mmap_packets_format_t *pfmt;
  86:ch_packets_reader.c **** 
  87:ch_packets_reader.c **** 	if(argc<2){
 103              	 .loc 1 87 0
 104 0006 83FF01   	 cmpl $1,%edi
  80:ch_packets_reader.c **** 
 105              	 .loc 1 80 0
 106 0009 897C240C 	 movl %edi,12(%rsp)
 107 000d 48893424 	 movq %rsi,(%rsp)
 108              	 .loc 1 87 0
 109 0011 0F8E6001 	 jle .L24
 109      0000
  88:ch_packets_reader.c **** 	
  89:ch_packets_reader.c **** 		fprintf(stderr,"Usage: appName <packets interface file name>!\n");
  90:ch_packets_reader.c **** 		return -1;
  91:ch_packets_reader.c **** 	}
  92:ch_packets_reader.c **** 
  93:ch_packets_reader.c **** 	fname = argv[1];
 110              	 .loc 1 93 0
 111 0017 488B0424 	 movq (%rsp),%rax
  94:ch_packets_reader.c **** 
  95:ch_packets_reader.c ****     /*init apr app runtine*/
  96:ch_packets_reader.c ****     apr_app_initialize(&argc,&argv,NULL);
 112              	 .loc 1 96 0
 113 001b 488D7C24 	 leaq 12(%rsp),%rdi
 113      0C
 114              	.LVL11:
 115 0020 31D2     	 xorl %edx,%edx
 116 0022 4889E6   	 movq %rsp,%rsi
 117              	.LVL12:
  93:ch_packets_reader.c **** 
 118              	 .loc 1 93 0
 119 0025 488B5808 	 movq 8(%rax),%rbx
 120              	.LVL13:
 121              	 .loc 1 96 0
 122 0029 E8000000 	 call apr_app_initialize
 122      00
 123              	.LVL14:
  97:ch_packets_reader.c **** 
  98:ch_packets_reader.c ****     /*create global apr memory pool*/
  99:ch_packets_reader.c ****     apr_pool_create(&mp,NULL);
 124              	 .loc 1 99 0
 125 002e 488D7C24 	 leaq 24(%rsp),%rdi
 125      18
 126 0033 31C9     	 xorl %ecx,%ecx
 127 0035 31D2     	 xorl %edx,%edx
GAS LISTING  			page 6


 128 0037 31F6     	 xorl %esi,%esi
 129 0039 E8000000 	 call apr_pool_create_ex
 129      00
 130              	.LVL15:
 100:ch_packets_reader.c **** 
 101:ch_packets_reader.c ****     if(mp == NULL){
 131              	 .loc 1 101 0
 132 003e 48837C24 	 cmpq $0,24(%rsp)
 132      1800
 133 0044 0F847001 	 je .L25
 133      0000
 102:ch_packets_reader.c **** 
 103:ch_packets_reader.c ****         fprintf(stderr,"create global memory pool failed!\n");
 104:ch_packets_reader.c ****         return -1;
 105:ch_packets_reader.c ****     }
 106:ch_packets_reader.c **** 
 107:ch_packets_reader.c ****     /*init errno*/
 108:ch_packets_reader.c ****     rc = ch_strerror_init();
 134              	 .loc 1 108 0
 135 004a E8000000 	 call ch_strerror_init
 135      00
 136              	.LVL16:
 109:ch_packets_reader.c ****     if(rc!=0){
 137              	 .loc 1 109 0
 138 004f 85C0     	 testl %eax,%eax
 139 0051 0F850001 	 jne .L26
 139      0000
 110:ch_packets_reader.c ****         fprintf(stderr,"init errno failed!\n");
 111:ch_packets_reader.c ****         return -1;
 112:ch_packets_reader.c ****     }
 113:ch_packets_reader.c ****     
 114:ch_packets_reader.c ****     /*init log*/
 115:ch_packets_reader.c ****     ch_log_init(mp,"/tmp/preader.log",CH_LOG_DEBUG);
 140              	 .loc 1 115 0
 141 0057 488B7C24 	 movq 24(%rsp),%rdi
 141      18
 142 005c BA080000 	 movl $8,%edx
 142      00
 143 0061 BE000000 	 movl $.LC6,%esi
 143      00
 144 0066 E8000000 	 call ch_log_init
 144      00
 145              	.LVL17:
 116:ch_packets_reader.c **** 
 117:ch_packets_reader.c **** 	apr_signal(SIGINT, handle_signals);
 146              	 .loc 1 117 0
 147 006b BE000000 	 movl $handle_signals,%esi
 147      00
 148 0070 BF020000 	 movl $2,%edi
 148      00
 149 0075 E8000000 	 call apr_signal
 149      00
 150              	.LVL18:
 118:ch_packets_reader.c **** 	apr_signal(SIGTERM, handle_signals);
 151              	 .loc 1 118 0
 152 007a BE000000 	 movl $handle_signals,%esi
 152      00
GAS LISTING  			page 7


 153 007f BF0F0000 	 movl $15,%edi
 153      00
 154 0084 E8000000 	 call apr_signal
 154      00
 155              	.LVL19:
 119:ch_packets_reader.c **** 
 120:ch_packets_reader.c **** 	pfmt = ch_mmap_packets_format_create(mp,fname,0,0,0);
 156              	 .loc 1 120 0
 157 0089 488B7C24 	 movq 24(%rsp),%rdi
 157      18
 158 008e 4531C0   	 xorl %r8d,%r8d
 159 0091 31C9     	 xorl %ecx,%ecx
 160 0093 31D2     	 xorl %edx,%edx
 161 0095 4889DE   	 movq %rbx,%rsi
 162 0098 E8000000 	 call ch_mmap_packets_format_create
 162      00
 163              	.LVL20:
 121:ch_packets_reader.c **** 	if(pfmt == NULL){
 164              	 .loc 1 121 0
 165 009d 4885C0   	 testq %rax,%rax
 120:ch_packets_reader.c **** 	if(pfmt == NULL){
 166              	 .loc 1 120 0
 167 00a0 4889C5   	 movq %rax,%rbp
 168              	.LVL21:
 169              	 .loc 1 121 0
 170 00a3 0F84EE00 	 je .L14
 170      0000
 171 00a9 31DB     	 xorl %ebx,%ebx
 172              	.LVL22:
 173              	.L15:
 174              	.LBB4:
 175              	.LBB5:
  50:ch_packets_reader.c **** 		
 176              	 .loc 1 50 0
 177 00ab 8B050000 	 movl is_exit(%rip),%eax
 177      0000
 178 00b1 85C0     	 testl %eax,%eax
 179 00b3 754A     	 jne .L27
 180              	 .p2align 4,,10
 181 00b5 0F1F00   	 .p2align 3
 182              	.L20:
  52:ch_packets_reader.c **** 		
 183              	 .loc 1 52 0
 184 00b8 4889EF   	 movq %rbp,%rdi
 185 00bb E8000000 	 call ch_mmap_packets_format_iterator_prefare
 185      00
 186              	.LVL23:
  54:ch_packets_reader.c **** 			ch_log(CH_LOG_INFO,"%s: iter is null, sleep %d seconds.", __func__, 1);
 187              	 .loc 1 54 0
 188 00c0 4885C0   	 testq %rax,%rax
  52:ch_packets_reader.c **** 		
 189              	 .loc 1 52 0
 190 00c3 4889C3   	 movq %rax,%rbx
 191              	.LVL24:
  54:ch_packets_reader.c **** 			ch_log(CH_LOG_INFO,"%s: iter is null, sleep %d seconds.", __func__, 1);
 192              	 .loc 1 54 0
 193 00c6 7517     	 jne .L17
GAS LISTING  			page 8


 194 00c8 EB60     	 jmp .L29
 195              	.LVL25:
 196 00ca 660F1F44 	 .p2align 4,,10
 196      0000
 197              	 .p2align 3
 198              	.L19:
  64:ch_packets_reader.c **** 		}
 199              	 .loc 1 64 0
 200 00d0 488B3500 	 movq stdout(%rip),%rsi
 200      000000
 201 00d7 4889C7   	 movq %rax,%rdi
 202 00da E8000000 	 call ch_mmap_packets_entry_dump
 202      00
 203              	.LVL26:
 204              	.L17:
  62:ch_packets_reader.c **** 
 205              	 .loc 1 62 0
 206 00df 4889DF   	 movq %rbx,%rdi
 207 00e2 FF5308   	 call *8(%rbx)
 208              	.LVL27:
 209 00e5 4885C0   	 testq %rax,%rax
 210 00e8 75E6     	 jne .L19
  67:ch_packets_reader.c **** 	}
 211              	 .loc 1 67 0
 212 00ea 4889DE   	 movq %rbx,%rsi
 213 00ed 4889EF   	 movq %rbp,%rdi
 214 00f0 E8000000 	 call ch_mmap_packets_format_iterator_commit
 214      00
 215              	.LVL28:
  50:ch_packets_reader.c **** 		
 216              	 .loc 1 50 0
 217 00f5 8B050000 	 movl is_exit(%rip),%eax
 217      0000
 218 00fb 85C0     	 testl %eax,%eax
 219 00fd 74B9     	 je .L20
 220              	.L27:
 221              	.LBE5:
 222              	.LBE4:
 122:ch_packets_reader.c **** 
 123:ch_packets_reader.c **** 		fprintf(stderr,"Create packets mmap file format instance failed!\n");
 124:ch_packets_reader.c **** 		return -1;
 125:ch_packets_reader.c **** 	}
 126:ch_packets_reader.c **** 
 127:ch_packets_reader.c **** 	read_packets_interface(pfmt);
 128:ch_packets_reader.c **** 
 129:ch_packets_reader.c **** 	return 0;
 223              	 .loc 1 129 0
 224 00ff 31C0     	 xorl %eax,%eax
 225              	.LBB8:
 226              	.LBB6:
  73:ch_packets_reader.c **** 		ch_mmap_packets_format_iterator_commit(pfmt, iter);
 227              	 .loc 1 73 0
 228 0101 4885DB   	 testq %rbx,%rbx
  71:ch_packets_reader.c **** 
 229              	 .loc 1 71 0
 230 0104 C7050000 	 movl $0,is_exit(%rip)
 230      00000000 
GAS LISTING  			page 9


 230      0000
  73:ch_packets_reader.c **** 		ch_mmap_packets_format_iterator_commit(pfmt, iter);
 231              	 .loc 1 73 0
 232 010e 7413     	 je .L11
  74:ch_packets_reader.c **** 
 233              	 .loc 1 74 0
 234 0110 4889DE   	 movq %rbx,%rsi
 235 0113 4889EF   	 movq %rbp,%rdi
 236 0116 89442408 	 movl %eax,8(%rsp)
 237 011a E8000000 	 call ch_mmap_packets_format_iterator_commit
 237      00
 238              	.LVL29:
 239 011f 8B442408 	 movl 8(%rsp),%eax
 240              	.LVL30:
 241              	.L11:
 242              	.LBE6:
 243              	.LBE8:
 130:ch_packets_reader.c **** }
 244              	 .loc 1 130 0
 245 0123 4883C428 	 addq $40,%rsp
 246              	 .cfi_remember_state
 247              	 .cfi_def_cfa_offset 24
 248              	.LVL31:
 249 0127 5B       	 popq %rbx
 250              	 .cfi_def_cfa_offset 16
 251 0128 5D       	 popq %rbp
 252              	 .cfi_def_cfa_offset 8
 253 0129 C3       	 ret
 254              	.LVL32:
 255              	.L29:
 256              	 .cfi_restore_state
 257              	.LBB9:
 258              	.LBB7:
  55:ch_packets_reader.c **** 			
 259              	 .loc 1 55 0
 260 012a 41B80100 	 movl $1,%r8d
 260      0000
 261 0130 B9000000 	 movl $__func__.5664,%ecx
 261      00
 262 0135 BA000000 	 movl $.LC8,%edx
 262      00
 263 013a 31F6     	 xorl %esi,%esi
 264 013c BF070000 	 movl $7,%edi
 264      00
 265 0141 31C0     	 xorl %eax,%eax
 266              	.LVL33:
 267 0143 E8000000 	 call ch_log_error_core
 267      00
 268              	.LVL34:
  57:ch_packets_reader.c **** 
 269              	 .loc 1 57 0
 270 0148 BF40420F 	 movl $1000000,%edi
 270      00
 271 014d E8000000 	 call usleep
 271      00
 272              	.LVL35:
 273 0152 E954FFFF 	 jmp .L15
GAS LISTING  			page 10


 273      FF
 274              	.LVL36:
 275              	.L26:
 276              	.LBE7:
 277              	.LBE9:
 110:ch_packets_reader.c ****         return -1;
 278              	 .loc 1 110 0
 279 0157 488B0D00 	 movq stderr(%rip),%rcx
 279      000000
 280 015e BA130000 	 movl $19,%edx
 280      00
 281 0163 BE010000 	 movl $1,%esi
 281      00
 282 0168 BF000000 	 movl $.LC5,%edi
 282      00
 283 016d E8000000 	 call fwrite
 283      00
 284              	.LVL37:
 111:ch_packets_reader.c ****     }
 285              	 .loc 1 111 0
 286 0172 83C8FF   	 orl $-1,%eax
 287 0175 EBAC     	 jmp .L11
 288              	.LVL38:
 289              	.L24:
  89:ch_packets_reader.c **** 		return -1;
 290              	 .loc 1 89 0
 291 0177 488B0D00 	 movq stderr(%rip),%rcx
 291      000000
 292 017e BA2E0000 	 movl $46,%edx
 292      00
 293 0183 BE010000 	 movl $1,%esi
 293      00
 294              	.LVL39:
 295 0188 BF000000 	 movl $.LC3,%edi
 295      00
 296              	.LVL40:
 297 018d E8000000 	 call fwrite
 297      00
 298              	.LVL41:
  90:ch_packets_reader.c **** 	}
 299              	 .loc 1 90 0
 300 0192 83C8FF   	 orl $-1,%eax
 301 0195 EB8C     	 jmp .L11
 302              	.LVL42:
 303              	.L14:
 123:ch_packets_reader.c **** 		return -1;
 304              	 .loc 1 123 0
 305 0197 488B0D00 	 movq stderr(%rip),%rcx
 305      000000
 306 019e BA310000 	 movl $49,%edx
 306      00
 307 01a3 BE010000 	 movl $1,%esi
 307      00
 308 01a8 BF000000 	 movl $.LC7,%edi
 308      00
 309 01ad E8000000 	 call fwrite
 309      00
GAS LISTING  			page 11


 310              	.LVL43:
 124:ch_packets_reader.c **** 	}
 311              	 .loc 1 124 0
 312 01b2 83C8FF   	 orl $-1,%eax
 313 01b5 E969FFFF 	 jmp .L11
 313      FF
 314              	.LVL44:
 315              	.L25:
 103:ch_packets_reader.c ****         return -1;
 316              	 .loc 1 103 0
 317 01ba 488B0D00 	 movq stderr(%rip),%rcx
 317      000000
 318 01c1 BA220000 	 movl $34,%edx
 318      00
 319 01c6 BE010000 	 movl $1,%esi
 319      00
 320 01cb BF000000 	 movl $.LC4,%edi
 320      00
 321 01d0 E8000000 	 call fwrite
 321      00
 322              	.LVL45:
 104:ch_packets_reader.c ****     }
 323              	 .loc 1 104 0
 324 01d5 83C8FF   	 orl $-1,%eax
 325 01d8 E946FFFF 	 jmp .L11
 325      FF
 326              	 .cfi_endproc
 327              	.LFE98:
 328              	 .size main,.-main
 329              	 .section .rodata
 330              	 .align 16
 331              	 .type __func__.5664,@object
 332              	 .size __func__.5664,23
 333              	__func__.5664:
 334 0000 72656164 	 .string "read_packets_interface"
 334      5F706163 
 334      6B657473 
 334      5F696E74 
 334      65726661 
 335              	 .local is_exit
 336              	 .comm is_exit,4,4
 337              	 .text
 338              	.Letext0:
 339              	 .file 2 "/usr/lib/gcc/x86_64-redhat-linux/4.8.5/include/stddef.h"
 340              	 .file 3 "/usr/include/bits/types.h"
 341              	 .file 4 "/usr/include/stdio.h"
 342              	 .file 5 "/usr/include/libio.h"
 343              	 .file 6 "/usr/include/stdint.h"
 344              	 .file 7 "/usr/local/apr/include/apr-1/apr_errno.h"
 345              	 .file 8 "/usr/local/apr/include/apr-1/apr_pools.h"
 346              	 .file 9 "/usr/local/apr/include/apr-1/apr_allocator.h"
 347              	 .file 10 "/usr/local/apr/include/apr-1/apr_signal.h"
 348              	 .file 11 "../util/ch_errno.h"
 349              	 .file 12 "../util/ch_mmap_packets_format.h"
 350              	 .file 13 "../util/ch_mmap.h"
 351              	 .file 14 "../util/ch_bin_format.h"
 352              	 .file 15 "/usr/include/stdlib.h"
GAS LISTING  			page 12


 353              	 .file 16 "../util/ch_log.h"
 354              	 .file 17 "/usr/include/unistd.h"
 355              	 .file 18 "/usr/local/apr/include/apr-1/apr_general.h"
 356              	 .file 19 "<built-in>"
 3101              	 .section .note.GNU-stack,"",@progbits
GAS LISTING  			page 69

